; Function Attrs: nounwind uwtable
define hidden void @zif_http_get_last_response_headers(ptr nocapture noundef readonly %0, ptr nocapture noundef writeonly %1) local_unnamed_addr #0 {
  %3 = getelementptr inbounds i8, ptr %0, i64 44
  %4 = load i32, ptr %3, align 4
  %.not = icmp eq i32 %4, 0
  br i1 %.not, label %.critedge, label %5

5:                                                ; preds = %2
  tail call void @zend_wrong_parameters_none_error() #10
  %6 = load ptr, ptr getelementptr inbounds (%struct._zend_executor_globals, ptr @executor_globals, i64 0, i32 50), align 8
  %7 = icmp ne ptr %6, null
  tail call void @llvm.assume(i1 %7)
  br label %20

.critedge:                                        ; preds = %2
  %8 = load i8, ptr getelementptr inbounds (%struct._php_basic_globals, ptr @basic_globals, i64 0, i32 12, i32 1), align 8
  %9 = icmp eq i8 %8, 0
  br i1 %9, label %18, label %10

10:                                               ; preds = %.critedge
  %11 = load ptr, ptr getelementptr inbounds (%struct._php_basic_globals, ptr @basic_globals, i64 0, i32 12), align 8
  %12 = load i32, ptr getelementptr inbounds (%struct._php_basic_globals, ptr @basic_globals, i64 0, i32 12, i32 1), align 8
  store ptr %11, ptr %1, align 8
  %13 = getelementptr inbounds i8, ptr %1, i64 8
  store i32 %12, ptr %13, align 8
  %14 = and i32 %12, 65280
  %.not12 = icmp eq i32 %14, 0
  br i1 %.not12, label %20, label %15

15:                                               ; preds = %10
  %16 = load i32, ptr %11, align 4
  %17 = add i32 %16, 1
  store i32 %17, ptr %11, align 4
  br label %20

18:                                               ; preds = %.critedge
  %19 = getelementptr inbounds i8, ptr %1, i64 8
  store i32 1, ptr %19, align 8
  br label %20

20:                                               ; preds = %15, %10, %18, %5
  ret void
}